target datalayout = "e-m:e-p270:32:32-p271:32:32-p272:64:64-i64:64-i128:128-f80:128-n8:16:32:64-S128"
target triple = "x86_64-pc-linux-gnu"

%struct.rb_shape_tree_t = type { ptr, ptr, i32, ptr, i32 }
%struct.rb_shape = type { ptr, i64, i32, i32, i8, i8, i32, ptr }

@rb_shape_tree_ptr = hidden global ptr null, align 8
@.str = private unnamed_addr constant [12 x i8] c"Unreachable\00", align 1

; Function Attrs: inlinehint nounwind sspstrong uwtable
define internal ptr @rb_current_shape_tree() #1 {
  %1 = load ptr, ptr @rb_shape_tree_ptr, align 8, !tbaa !15
  ret ptr %1
}

; Function Attrs: nounwind sspstrong uwtable
define hidden ptr @rb_shape_get_shape_by_id(i32 noundef %0) #0 {
  %2 = alloca i32, align 4
  %3 = alloca ptr, align 8
  store i32 %0, ptr %2, align 4, !tbaa !21
  call void @llvm.lifetime.start.p0(i64 8, ptr %3) #14
  %4 = call ptr @rb_current_shape_tree()
  %5 = getelementptr inbounds nuw %struct.rb_shape_tree_t, ptr %4, i32 0, i32 0
  %6 = load ptr, ptr %5, align 8, !tbaa !17
  %7 = load i32, ptr %2, align 4, !tbaa !21
  %8 = zext i32 %7 to i64
  %9 = getelementptr %struct.rb_shape, ptr %6, i64 %8
  store ptr %9, ptr %3, align 8, !tbaa !16
  %10 = load ptr, ptr %3, align 8, !tbaa !16
  call void @llvm.lifetime.end.p0(i64 8, ptr %3) #14
  ret ptr %10
}

; Function Attrs: nounwind sspstrong uwtable
define hidden ptr @rb_shape_get_parent(ptr noundef %0) #0 {
  %2 = alloca ptr, align 8
  store ptr %0, ptr %2, align 8, !tbaa !16
  %3 = load ptr, ptr %2, align 8, !tbaa !16
  %4 = getelementptr inbounds nuw %struct.rb_shape, ptr %3, i32 0, i32 6
  %5 = load i32, ptr %4, align 4, !tbaa !22
  %6 = call ptr @rb_shape_get_shape_by_id(i32 noundef %5)
  ret ptr %6
}

; Function Attrs: nounwind sspstrong uwtable
define hidden ptr @rb_shape_traverse_from_new_root(ptr noundef %0, ptr noundef %1) #0 {
  %3 = alloca ptr, align 8
  %4 = alloca ptr, align 8
  %5 = alloca ptr, align 8
  %6 = alloca ptr, align 8
  %7 = alloca i32, align 4
  %8 = alloca i64, align 8
  %9 = alloca ptr, align 8
  store ptr %0, ptr %4, align 8, !tbaa !16
  store ptr %1, ptr %5, align 8, !tbaa !16
  call void @llvm.lifetime.start.p0(i64 8, ptr %6) #14
  %10 = load ptr, ptr %4, align 8, !tbaa !16
  store ptr %10, ptr %6, align 8, !tbaa !16
  %11 = load ptr, ptr %5, align 8, !tbaa !16
  %12 = getelementptr inbounds nuw %struct.rb_shape, ptr %11, i32 0, i32 4
  %13 = load i8, ptr %12, align 8, !tbaa !28
  %14 = zext i8 %13 to i32
  %15 = load ptr, ptr %4, align 8, !tbaa !16
  %16 = getelementptr inbounds nuw %struct.rb_shape, ptr %15, i32 0, i32 4
  %17 = load i8, ptr %16, align 8, !tbaa !28
  %18 = zext i8 %17 to i32
  %19 = icmp ne i32 %14, %18
  br i1 %19, label %20, label %29

20:                                               ; preds = %2
  %21 = load ptr, ptr %4, align 8, !tbaa !16
  %22 = load ptr, ptr %5, align 8, !tbaa !16
  %23 = call ptr @rb_shape_get_parent(ptr noundef %22)
  %24 = call ptr @rb_shape_traverse_from_new_root(ptr noundef %21, ptr noundef %23)
  store ptr %24, ptr %6, align 8, !tbaa !16
  %25 = load ptr, ptr %6, align 8, !tbaa !16
  %26 = icmp ne ptr %25, null
  br i1 %26, label %28, label %27

27:                                               ; preds = %20
  store ptr null, ptr %3, align 8
  store i32 1, ptr %7, align 4
  br label %84

28:                                               ; preds = %20
  br label %29

29:                                               ; preds = %28, %2
  %30 = load ptr, ptr %5, align 8, !tbaa !16
  %31 = getelementptr inbounds nuw %struct.rb_shape, ptr %30, i32 0, i32 4
  %32 = load i8, ptr %31, align 8, !tbaa !28
  %33 = zext i8 %32 to i32
  switch i32 %33, label %82 [
    i32 1, label %34
    i32 2, label %34
    i32 0, label %80
    i32 3, label %80
    i32 4, label %81
  ]

34:                                               ; preds = %29, %29
  %35 = load ptr, ptr %6, align 8, !tbaa !16
  %36 = getelementptr inbounds nuw %struct.rb_shape, ptr %35, i32 0, i32 0
  %37 = load ptr, ptr %36, align 8, !tbaa !51
  %38 = icmp ne ptr %37, null
  br i1 %38, label %40, label %39

39:                                               ; preds = %34
  store ptr null, ptr %3, align 8
  store i32 1, ptr %7, align 4
  br label %84

40:                                               ; preds = %34
  %41 = load ptr, ptr %6, align 8, !tbaa !16
  %42 = getelementptr inbounds nuw %struct.rb_shape, ptr %41, i32 0, i32 0
  %43 = load ptr, ptr %42, align 8, !tbaa !51
  %44 = ptrtoint ptr %43 to i64
  %45 = and i64 %44, 1
  %46 = icmp ne i64 %45, 0
  br i1 %46, label %47, label %65

47:                                               ; preds = %40
  call void @llvm.lifetime.start.p0(i64 8, ptr %9) #14
  %48 = load ptr, ptr %6, align 8, !tbaa !16
  %49 = getelementptr inbounds nuw %struct.rb_shape, ptr %48, i32 0, i32 0
  %50 = load ptr, ptr %49, align 8, !tbaa !51
  %51 = ptrtoint ptr %50 to i64
  %52 = and i64 %51, -2
  %53 = inttoptr i64 %52 to ptr
  store ptr %53, ptr %9, align 8, !tbaa !16
  %54 = load ptr, ptr %9, align 8, !tbaa !16
  %55 = getelementptr inbounds nuw %struct.rb_shape, ptr %54, i32 0, i32 1
  %56 = load i64, ptr %55, align 8, !tbaa !43
  %57 = load ptr, ptr %5, align 8, !tbaa !16
  %58 = getelementptr inbounds nuw %struct.rb_shape, ptr %57, i32 0, i32 1
  %59 = load i64, ptr %58, align 8, !tbaa !43
  %60 = icmp eq i64 %56, %59
  br i1 %60, label %61, label %63

61:                                               ; preds = %47
  %62 = load ptr, ptr %9, align 8, !tbaa !16
  store ptr %62, ptr %3, align 8
  store i32 1, ptr %7, align 4
  br label %64

63:                                               ; preds = %47
  store ptr null, ptr %3, align 8
  store i32 1, ptr %7, align 4
  br label %64

64:                                               ; preds = %63, %61
  call void @llvm.lifetime.end.p0(i64 8, ptr %9) #14
  br label %84

65:                                               ; preds = %40
  %66 = load ptr, ptr %6, align 8, !tbaa !16
  %67 = getelementptr inbounds nuw %struct.rb_shape, ptr %66, i32 0, i32 0
  %68 = load ptr, ptr %67, align 8, !tbaa !51
  %69 = load ptr, ptr %5, align 8, !tbaa !16
  %70 = getelementptr inbounds nuw %struct.rb_shape, ptr %69, i32 0, i32 1
  %71 = load i64, ptr %70, align 8, !tbaa !43
  %72 = call i32 @rb_id_table_lookup(ptr noundef %68, i64 noundef %71, ptr noundef %8)
  %73 = icmp ne i32 %72, 0
  br i1 %73, label %74, label %77

74:                                               ; preds = %65
  %75 = load i64, ptr %8, align 8, !tbaa !26
  %76 = inttoptr i64 %75 to ptr
  store ptr %76, ptr %6, align 8, !tbaa !16
  br label %78

77:                                               ; preds = %65
  store ptr null, ptr %3, align 8
  store i32 1, ptr %7, align 4
  br label %84

78:                                               ; preds = %74
  br label %79

79:                                               ; preds = %78
  br label %82

80:                                               ; preds = %29, %29
  br label %82

81:                                               ; preds = %29
  call void (ptr, ...) @rb_bug(ptr noundef @.str) #19
  unreachable

82:                                               ; preds = %29, %80, %79
  %83 = load ptr, ptr %6, align 8, !tbaa !16
  store ptr %83, ptr %3, align 8
  store i32 1, ptr %7, align 4
  br label %84

84:                                               ; preds = %82, %77, %64, %39, %27
  call void @llvm.lifetime.end.p0(i64 8, ptr %6) #14
  %85 = load ptr, ptr %3, align 8
  ret ptr %85
}