; Function Attrs: nounwind sspstrong uwtable
define hidden ptr @rb_shape_traverse_from_new_root(ptr noundef %0, ptr noundef readonly captures(none) %1) local_unnamed_addr #1 {
  %3 = alloca i64, align 8
  %4 = getelementptr inbounds nuw i8, ptr %1, i64 24
  %5 = load i8, ptr %4, align 8, !tbaa !27
  %6 = getelementptr inbounds nuw i8, ptr %0, i64 24
  %7 = load i8, ptr %6, align 8, !tbaa !27
  %.not = icmp eq i8 %5, %7
  br i1 %.not, label %16, label %8

8:                                                ; preds = %2
  %9 = getelementptr inbounds nuw i8, ptr %1, i64 28
  %10 = load i32, ptr %9, align 4, !tbaa !20
  %11 = load ptr, ptr @rb_shape_tree_ptr, align 8, !tbaa !7
  %12 = load ptr, ptr %11, align 8, !tbaa !16
  %13 = zext i32 %10 to i64
  %14 = getelementptr %struct.rb_shape, ptr %12, i64 %13
  %15 = tail call ptr @rb_shape_traverse_from_new_root(ptr noundef nonnull %0, ptr noundef %14)
  %.not21 = icmp eq ptr %15, null
  br i1 %.not21, label %39, label %thread-pre-split

thread-pre-split:                                 ; preds = %8
  %.pr = load i8, ptr %4, align 8, !tbaa !27
  br label %16

16:                                               ; preds = %thread-pre-split, %2
  %17 = phi i8 [ %.pr, %thread-pre-split ], [ %5, %2 ]
  %.017 = phi ptr [ %15, %thread-pre-split ], [ %0, %2 ]
  switch i8 %17, label %39 [
    i8 1, label %18
    i8 2, label %18
    i8 4, label %38
  ]

18:                                               ; preds = %16, %16
  %19 = load ptr, ptr %.017, align 8, !tbaa !46
  %.not22 = icmp eq ptr %19, null
  br i1 %.not22, label %39, label %20

20:                                               ; preds = %18
  %21 = ptrtoint ptr %19 to i64
  %22 = and i64 %21, 1
  %.not23 = icmp eq i64 %22, 0
  br i1 %.not23, label %31, label %23

23:                                               ; preds = %20
  %24 = and i64 %21, -2
  %25 = inttoptr i64 %24 to ptr
  %26 = getelementptr inbounds nuw i8, ptr %25, i64 8
  %27 = load i64, ptr %26, align 8, !tbaa !42
  %28 = getelementptr inbounds nuw i8, ptr %1, i64 8
  %29 = load i64, ptr %28, align 8, !tbaa !42
  %30 = icmp eq i64 %27, %29
  %. = select i1 %30, ptr %25, ptr null
  br label %39

31:                                               ; preds = %20
  %32 = getelementptr inbounds nuw i8, ptr %1, i64 8
  %33 = load i64, ptr %32, align 8, !tbaa !42
  %34 = call i32 @rb_id_table_lookup(ptr noundef nonnull %19, i64 noundef %33, ptr noundef nonnull %3) #15
  %.not24 = icmp eq i32 %34, 0
  br i1 %.not24, label %39, label %35

35:                                               ; preds = %31
  %36 = load i64, ptr %3, align 8, !tbaa !41
  %37 = inttoptr i64 %36 to ptr
  br label %39

38:                                               ; preds = %16
  tail call void (ptr, ...) @rb_bug(ptr noundef nonnull @.str) #16
  unreachable

39:                                               ; preds = %16, %35, %31, %18, %8, %23
  %.0 = phi ptr [ %., %23 ], [ null, %8 ], [ null, %18 ], [ null, %31 ], [ %.017, %16 ], [ %37, %35 ]
  ret ptr %.0
}